target datalayout = "e-m:e-p270:32:32-p271:32:32-p272:64:64-i64:64-i128:128-f80:128-n8:16:32:64-S128"
target triple = "x86_64-pc-linux-gnu"

@.str.3 = private unnamed_addr constant [14 x i8] c"XDG_DATA_HOME\00", align 1
@.str.4 = private unnamed_addr constant [26 x i8] c"Parameter '%s' is invalid\00", align 1
@.str.5 = private unnamed_addr constant [4 x i8] c"app\00", align 1
@.str.6 = private unnamed_addr constant [1 x i8] zeroinitializer, align 1
@.str.7 = private unnamed_addr constant [5 x i8] c"HOME\00", align 1
@.str.8 = private unnamed_addr constant [50 x i8] c"neither XDG_DATA_HOME nor HOME environment is set\00", align 1
@.str.9 = private unnamed_addr constant [15 x i8] c"/.local/share/\00", align 1
@.str.10 = private unnamed_addr constant [2 x i8] c"/\00", align 1
@.str.11 = private unnamed_addr constant [11 x i8] c"%s%s%s/%s/\00", align 1
@.str.12 = private unnamed_addr constant [8 x i8] c"%s%s%s/\00", align 1
@.str.13 = private unnamed_addr constant [37 x i8] c"Couldn't create directory '%s': '%s'\00", align 1

; Function Attrs: nounwind uwtable
define hidden ptr @SDL_SYS_GetPrefPath(ptr noundef %0, ptr noundef %1) #0 {
  %3 = alloca ptr, align 8
  %4 = alloca ptr, align 8
  %5 = alloca ptr, align 8
  %6 = alloca ptr, align 8
  %7 = alloca ptr, align 8
  %8 = alloca ptr, align 8
  %9 = alloca ptr, align 8
  %10 = alloca i64, align 8
  %11 = alloca i32, align 4
  store ptr %0, ptr %4, align 8
  store ptr %1, ptr %5, align 8
  call void @llvm.lifetime.start.p0(i64 8, ptr %6) #6
  %12 = call ptr @SDL_getenv_REAL(ptr noundef @.str.3)
  store ptr %12, ptr %6, align 8
  call void @llvm.lifetime.start.p0(i64 8, ptr %7) #6
  call void @llvm.lifetime.start.p0(i64 8, ptr %8) #6
  store ptr null, ptr %8, align 8
  call void @llvm.lifetime.start.p0(i64 8, ptr %9) #6
  store ptr null, ptr %9, align 8
  call void @llvm.lifetime.start.p0(i64 8, ptr %10) #6
  store i64 0, ptr %10, align 8
  %13 = load ptr, ptr %5, align 8
  %14 = icmp ne ptr %13, null
  br i1 %14, label %17, label %15

15:                                               ; preds = %2
  %16 = call zeroext i1 (ptr, ...) @SDL_SetError_REAL(ptr noundef @.str.4, ptr noundef @.str.5)
  store ptr null, ptr %3, align 8
  store i32 1, ptr %11, align 4
  br label %127

17:                                               ; preds = %2
  %18 = load ptr, ptr %4, align 8
  %19 = icmp ne ptr %18, null
  br i1 %19, label %21, label %20

20:                                               ; preds = %17
  store ptr @.str.6, ptr %4, align 8
  br label %21

21:                                               ; preds = %20, %17
  %22 = load ptr, ptr %6, align 8
  %23 = icmp ne ptr %22, null
  br i1 %23, label %31, label %24

24:                                               ; preds = %21
  %25 = call ptr @SDL_getenv_REAL(ptr noundef @.str.7)
  store ptr %25, ptr %6, align 8
  %26 = load ptr, ptr %6, align 8
  %27 = icmp ne ptr %26, null
  br i1 %27, label %30, label %28

28:                                               ; preds = %24
  %29 = call zeroext i1 (ptr, ...) @SDL_SetError_REAL(ptr noundef @.str.8)
  store ptr null, ptr %3, align 8
  store i32 1, ptr %11, align 4
  br label %127

30:                                               ; preds = %24
  store ptr @.str.9, ptr %7, align 8
  br label %32

31:                                               ; preds = %21
  store ptr @.str.10, ptr %7, align 8
  br label %32

32:                                               ; preds = %31, %30
  %33 = load ptr, ptr %6, align 8
  %34 = call i64 @SDL_strlen_REAL(ptr noundef %33)
  store i64 %34, ptr %10, align 8
  %35 = load ptr, ptr %6, align 8
  %36 = load i64, ptr %10, align 8
  %37 = sub i64 %36, 1
  %38 = getelementptr inbounds nuw i8, ptr %35, i64 %37
  %39 = load i8, ptr %38, align 1
  %40 = sext i8 %39 to i32
  %41 = icmp eq i32 %40, 47
  br i1 %41, label %42, label %45

42:                                               ; preds = %32
  %43 = load ptr, ptr %7, align 8
  %44 = getelementptr inbounds i8, ptr %43, i64 1
  store ptr %44, ptr %7, align 8
  br label %45

45:                                               ; preds = %42, %32
  %46 = load ptr, ptr %7, align 8
  %47 = call i64 @SDL_strlen_REAL(ptr noundef %46)
  %48 = load ptr, ptr %4, align 8
  %49 = call i64 @SDL_strlen_REAL(ptr noundef %48)
  %50 = add i64 %47, %49
  %51 = load ptr, ptr %5, align 8
  %52 = call i64 @SDL_strlen_REAL(ptr noundef %51)
  %53 = add i64 %50, %52
  %54 = add i64 %53, 3
  %55 = load i64, ptr %10, align 8
  %56 = add i64 %55, %54
  store i64 %56, ptr %10, align 8
  %57 = load i64, ptr %10, align 8
  %58 = call noalias ptr @SDL_malloc_REAL(i64 noundef %57)
  store ptr %58, ptr %8, align 8
  %59 = load ptr, ptr %8, align 8
  %60 = icmp ne ptr %59, null
  br i1 %60, label %62, label %61

61:                                               ; preds = %45
  store ptr null, ptr %3, align 8
  store i32 1, ptr %11, align 4
  br label %127

62:                                               ; preds = %45
  %63 = load ptr, ptr %4, align 8
  %64 = load i8, ptr %63, align 1
  %65 = icmp ne i8 %64, 0
  br i1 %65, label %66, label %74

66:                                               ; preds = %62
  %67 = load ptr, ptr %8, align 8
  %68 = load i64, ptr %10, align 8
  %69 = load ptr, ptr %6, align 8
  %70 = load ptr, ptr %7, align 8
  %71 = load ptr, ptr %4, align 8
  %72 = load ptr, ptr %5, align 8
  %73 = call i32 (ptr, i64, ptr, ...) @SDL_snprintf_REAL(ptr noundef %67, i64 noundef %68, ptr noundef @.str.11, ptr noundef %69, ptr noundef %70, ptr noundef %71, ptr noundef %72)
  br label %81

74:                                               ; preds = %62
  %75 = load ptr, ptr %8, align 8
  %76 = load i64, ptr %10, align 8
  %77 = load ptr, ptr %6, align 8
  %78 = load ptr, ptr %7, align 8
  %79 = load ptr, ptr %5, align 8
  %80 = call i32 (ptr, i64, ptr, ...) @SDL_snprintf_REAL(ptr noundef %75, i64 noundef %76, ptr noundef @.str.12, ptr noundef %77, ptr noundef %78, ptr noundef %79)
  br label %81

81:                                               ; preds = %74, %66
  %82 = load ptr, ptr %8, align 8
  %83 = getelementptr inbounds i8, ptr %82, i64 1
  store ptr %83, ptr %9, align 8
  br label %84

84:                                               ; preds = %106, %81
  %85 = load ptr, ptr %9, align 8
  %86 = load i8, ptr %85, align 1
  %87 = icmp ne i8 %86, 0
  br i1 %87, label %88, label %109

88:                                               ; preds = %84
  %89 = load ptr, ptr %9, align 8
  %90 = load i8, ptr %89, align 1
  %91 = sext i8 %90 to i32
  %92 = icmp eq i32 %91, 47
  br i1 %92, label %93, label %105

93:                                               ; preds = %88
  %94 = load ptr, ptr %9, align 8
  store i8 0, ptr %94, align 1
  %95 = load ptr, ptr %8, align 8
  %96 = call i32 @mkdir(ptr noundef %95, i32 noundef 448) #6
  %97 = icmp ne i32 %96, 0
  br i1 %97, label %98, label %103

98:                                               ; preds = %93
  %99 = call ptr @__errno_location() #8
  %100 = load i32, ptr %99, align 4
  %101 = icmp ne i32 %100, 17
  br i1 %101, label %102, label %103

102:                                              ; preds = %98
  br label %118

103:                                              ; preds = %98, %93
  %104 = load ptr, ptr %9, align 8
  store i8 47, ptr %104, align 1
  br label %105

105:                                              ; preds = %103, %88
  br label %106

106:                                              ; preds = %105
  %107 = load ptr, ptr %9, align 8
  %108 = getelementptr inbounds nuw i8, ptr %107, i32 1
  store ptr %108, ptr %9, align 8
  br label %84, !llvm.loop !3

109:                                              ; preds = %84
  %110 = load ptr, ptr %8, align 8
  %111 = call i32 @mkdir(ptr noundef %110, i32 noundef 448) #6
  %112 = icmp ne i32 %111, 0
  br i1 %112, label %113, label %125

113:                                              ; preds = %109
  %114 = call ptr @__errno_location() #8
  %115 = load i32, ptr %114, align 4
  %116 = icmp ne i32 %115, 17
  br i1 %116, label %117, label %125

117:                                              ; preds = %113
  br label %118

118:                                              ; preds = %117, %102
  %119 = load ptr, ptr %8, align 8
  %120 = call ptr @__errno_location() #8
  %121 = load i32, ptr %120, align 4
  %122 = call ptr @strerror(i32 noundef %121) #6
  %123 = call zeroext i1 (ptr, ...) @SDL_SetError_REAL(ptr noundef @.str.13, ptr noundef %119, ptr noundef %122)
  %124 = load ptr, ptr %8, align 8
  call void @SDL_free_REAL(ptr noundef %124)
  store ptr null, ptr %3, align 8
  store i32 1, ptr %11, align 4
  br label %127

125:                                              ; preds = %113, %109
  %126 = load ptr, ptr %8, align 8
  store ptr %126, ptr %3, align 8
  store i32 1, ptr %11, align 4
  br label %127

127:                                              ; preds = %125, %118, %61, %28, %15
  call void @llvm.lifetime.end.p0(i64 8, ptr %10) #6
  call void @llvm.lifetime.end.p0(i64 8, ptr %9) #6
  call void @llvm.lifetime.end.p0(i64 8, ptr %8) #6
  call void @llvm.lifetime.end.p0(i64 8, ptr %7) #6
  call void @llvm.lifetime.end.p0(i64 8, ptr %6) #6
  %128 = load ptr, ptr %3, align 8
  ret ptr %128
}