; Function Attrs: nounwind uwtable
define hidden ptr @SDL_SYS_GetPrefPath(ptr noundef %0, ptr noundef %1) local_unnamed_addr #0 {
  %3 = tail call ptr @SDL_getenv_REAL(ptr noundef nonnull @.str.3) #7
  %.not = icmp eq ptr %1, null
  br i1 %.not, label %4, label %6

4:                                                ; preds = %2
  %5 = tail call zeroext i1 (ptr, ...) @SDL_SetError_REAL(ptr noundef nonnull @.str.4, ptr noundef nonnull @.str.5) #7
  br label %47

6:                                                ; preds = %2
  %.not45 = icmp eq ptr %0, null
  %spec.store.select = select i1 %.not45, ptr @.str.6, ptr %0
  %.not46 = icmp eq ptr %3, null
  br i1 %.not46, label %7, label %11

7:                                                ; preds = %6
  %8 = tail call ptr @SDL_getenv_REAL(ptr noundef nonnull @.str.7) #7
  %.not47 = icmp eq ptr %8, null
  br i1 %.not47, label %9, label %11

9:                                                ; preds = %7
  %10 = tail call zeroext i1 (ptr, ...) @SDL_SetError_REAL(ptr noundef nonnull @.str.8) #7
  br label %47

11:                                               ; preds = %6, %7
  %.038 = phi ptr [ %8, %7 ], [ %3, %6 ]
  %.037 = phi ptr [ @.str.9, %7 ], [ @.str.10, %6 ]
  %12 = tail call i64 @SDL_strlen_REAL(ptr noundef nonnull %.038) #7
  %13 = getelementptr i8, ptr %.038, i64 %12
  %14 = getelementptr i8, ptr %13, i64 -1
  %15 = load i8, ptr %14, align 1
  %16 = icmp eq i8 %15, 47
  %spec.select.idx = zext i1 %16 to i64
  %spec.select = getelementptr inbounds nuw i8, ptr %.037, i64 %spec.select.idx
  %17 = tail call i64 @SDL_strlen_REAL(ptr noundef nonnull %spec.select) #7
  %18 = tail call i64 @SDL_strlen_REAL(ptr noundef nonnull %spec.store.select) #7
  %19 = tail call i64 @SDL_strlen_REAL(ptr noundef nonnull %1) #7
  %20 = add i64 %12, 3
  %21 = add i64 %20, %17
  %22 = add i64 %21, %18
  %23 = add i64 %22, %19
  %24 = tail call noalias ptr @SDL_malloc_REAL(i64 noundef %23) #7
  %.not48 = icmp eq ptr %24, null
  br i1 %.not48, label %47, label %25

25:                                               ; preds = %11
  %26 = load i8, ptr %spec.store.select, align 1
  %.not49 = icmp eq i8 %26, 0
  br i1 %.not49, label %29, label %27

27:                                               ; preds = %25
  %28 = tail call i32 (ptr, i64, ptr, ...) @SDL_snprintf_REAL(ptr noundef nonnull %24, i64 noundef %23, ptr noundef nonnull @.str.11, ptr noundef nonnull %.038, ptr noundef nonnull %spec.select, ptr noundef nonnull %spec.store.select, ptr noundef nonnull %1) #7
  br label %.preheader

29:                                               ; preds = %25
  %30 = tail call i32 (ptr, i64, ptr, ...) @SDL_snprintf_REAL(ptr noundef nonnull %24, i64 noundef %23, ptr noundef nonnull @.str.12, ptr noundef nonnull %.038, ptr noundef nonnull %spec.select, ptr noundef nonnull %1) #7
  br label %.preheader

.preheader:                                       ; preds = %29, %27
  br label %31

31:                                               ; preds = %.backedge, %.preheader
  %.pn = phi ptr [ %24, %.preheader ], [ %.0, %.backedge ]
  %.0 = getelementptr inbounds nuw i8, ptr %.pn, i64 1
  %32 = load i8, ptr %.0, align 1
  switch i8 %32, label %.backedge [
    i8 0, label %39
    i8 47, label %33
  ]

.backedge:                                        ; preds = %31, %38
  br label %31, !llvm.loop !3

33:                                               ; preds = %31
  store i8 0, ptr %.0, align 1
  %34 = tail call i32 @mkdir(ptr noundef nonnull %24, i32 noundef 448) #7
  %.not53 = icmp eq i32 %34, 0
  br i1 %.not53, label %38, label %35

35:                                               ; preds = %33
  %36 = tail call ptr @__errno_location() #9
  %37 = load i32, ptr %36, align 4
  %.not54 = icmp eq i32 %37, 17
  br i1 %.not54, label %38, label %.loopexit

38:                                               ; preds = %35, %33
  store i8 47, ptr %.0, align 1
  br label %.backedge

39:                                               ; preds = %31
  %40 = tail call i32 @mkdir(ptr noundef nonnull %24, i32 noundef 448) #7
  %.not51 = icmp eq i32 %40, 0
  br i1 %.not51, label %47, label %41

41:                                               ; preds = %39
  %42 = tail call ptr @__errno_location() #9
  %43 = load i32, ptr %42, align 4
  %.not52 = icmp eq i32 %43, 17
  br i1 %.not52, label %47, label %.loopexit

.loopexit:                                        ; preds = %35, %41
  %.pre-phi = phi ptr [ %42, %41 ], [ %36, %35 ]
  %44 = load i32, ptr %.pre-phi, align 4
  %45 = tail call ptr @strerror(i32 noundef %44) #7
  %46 = tail call zeroext i1 (ptr, ...) @SDL_SetError_REAL(ptr noundef nonnull @.str.13, ptr noundef nonnull %24, ptr noundef %45) #7
  tail call void @SDL_free_REAL(ptr noundef nonnull %24) #7
  br label %47

47:                                               ; preds = %39, %41, %11, %.loopexit, %9, %4
  %.039 = phi ptr [ null, %.loopexit ], [ null, %9 ], [ null, %4 ], [ null, %11 ], [ %24, %41 ], [ %24, %39 ]
  ret ptr %.039
}